Certificate:
    Data:
        Version: 3 (0x2)
        Serial Number: 4660 (0x1234)
        Signature Algorithm: sha256WithRSAEncryption
        Issuer: C=jo, ST=amman, L=amman, O=abuodeh, OU=abuodeh, CN=hisham/emailAddress=H.Ibraheem@abuodehbros.com
        Validity
            Not Before: May  9 10:12:09 2022 GMT
            Not After : May  9 10:12:09 2023 GMT
        Subject: C=jo, ST=amman, O=abuodeh, OU=abuodeh, CN=hisham/emailAddress=H.Ibraheem@abuodehbros.com
        Subject Public Key Info:
            Public Key Algorithm: rsaEncryption
                RSA Public-Key: (2048 bit)
                Modulus:
                    00:b2:98:b7:3e:53:73:02:4f:87:6e:43:ca:9d:86:
                    e0:cf:e8:0f:98:c1:6d:c3:da:32:26:6c:2c:08:ef:
                    ec:16:e7:c1:d6:9b:95:c7:88:00:4e:1f:47:17:54:
                    3a:10:e3:81:7a:ca:a9:18:37:00:3e:3a:ff:cb:7d:
                    61:f0:58:6a:3d:e0:8a:88:75:81:63:8a:0d:f2:aa:
                    3f:f3:13:04:6a:b1:bd:71:3f:d7:cc:2d:ad:bb:98:
                    e9:1b:0a:12:95:b0:65:14:c0:89:9d:f1:01:26:ed:
                    f4:0e:ec:9e:02:b1:14:01:ff:29:85:dd:7d:cf:fd:
                    55:72:86:6a:73:cc:7b:7a:80:11:cf:3d:f5:b1:d0:
                    eb:a5:87:9b:2e:5d:d1:6f:d1:48:0c:14:a0:1a:e1:
                    58:94:1a:6e:1b:5b:5a:ff:6c:42:9a:6d:9a:73:27:
                    74:8a:e2:78:d3:e0:4d:f8:80:3d:58:ab:70:43:62:
                    87:90:1e:90:cf:62:eb:30:b1:6f:a2:9e:96:9d:cf:
                    8b:78:6a:d4:95:88:f4:a5:b3:b8:b9:03:06:64:c8:
                    98:7b:03:d0:c8:ba:85:46:f9:62:ea:bb:a2:5c:0a:
                    c5:75:3c:6d:18:a8:8e:cf:ee:92:71:1b:f5:73:85:
                    92:b5:df:d1:24:60:63:84:97:ac:69:38:b3:13:55:
                    7b:6d
                Exponent: 65537 (0x10001)
        X509v3 extensions:
            X509v3 Basic Constraints: 
                CA:FALSE
            Netscape Comment: 
                OpenSSL Generated Certificate
            X509v3 Subject Key Identifier: 
                EB:B1:C2:CD:F3:A0:B2:FF:5F:4F:62:A5:0D:33:36:B7:C6:5D:A1:D7
            X509v3 Authority Key Identifier: 
                keyid:91:E7:4D:99:3B:39:25:F5:EF:8D:8B:9C:D1:89:95:D3:C6:1C:A4:57

    Signature Algorithm: sha256WithRSAEncryption
         af:de:b4:c4:7b:2a:e1:a8:1b:e5:07:b1:83:f1:33:3d:7a:7f:
         e5:86:90:f2:b1:6b:51:c1:87:d2:4d:74:11:82:2c:0b:12:87:
         86:62:42:02:9e:0b:c3:15:05:af:50:56:e3:78:5b:28:98:db:
         14:60:a3:7e:1d:47:d9:1a:9c:0a:21:5a:91:25:b3:c8:3f:f1:
         8c:da:ca:98:fa:14:76:ea:a6:74:f3:55:55:5e:6a:f3:d7:b0:
         18:52:db:30:8e:4b:ad:e2:b4:5f:b4:be:b6:93:c0:a7:9e:c8:
         58:86:94:01:91:8b:4f:be:48:99:19:a4:0c:c4:b4:1a:02:78:
         7b:a7:20:a7:20:cf:2a:74:85:cd:4c:7d:a6:92:c7:9f:fa:59:
         95:c1:bc:5a:01:04:f4:5b:8a:60:47:93:7b:a6:5d:89:c4:62:
         c0:f4:7d:c8:d8:0e:9a:32:90:ae:82:c0:bb:b1:7e:ef:aa:b1:
         e0:6a:09:2a:32:e5:ea:b7:34:d7:36:38:bd:97:69:08:87:df:
         27:65:97:2c:63:27:b6:68:21:53:e9:fb:c5:9b:5f:3c:87:b4:
         9c:8e:28:ed:df:9e:25:92:50:75:43:a9:f7:d1:d0:e7:d0:c7:
         fa:88:19:a8:d0:86:61:b0:09:f2:ab:c8:8c:f6:b1:0c:65:20:
         85:4c:02:74:8f:98:fa:77:6e:54:a1:a0:be:5e:0a:65:fd:f4:
         12:4d:3d:e3:8a:e6:08:e5:f8:6d:df:e2:0e:69:15:5e:d2:bd:
         f7:84:cb:78:a3:ba:62:ae:5a:ce:37:20:54:4b:9a:2a:b7:15:
         5b:9e:45:1d:2c:7b:db:3f:ad:62:9b:1c:ce:9b:19:55:96:06:
         bf:bc:24:2f:56:cb:b1:b2:ee:ed:b3:6b:2a:38:dd:10:7a:61:
         1c:b3:ed:24:a8:2f:5d:75:c1:b5:e4:6a:1c:9d:87:3d:6e:37:
         62:6d:6c:e1:75:8c:99:5a:70:38:16:e7:f2:2a:df:8c:1b:76:
         67:41:f3:fa:a5:39:75:4e:34:32:21:85:10:3f:72:38:60:b0:
         8d:62:d4:59:1b:65:3f:38:d3:b9:cf:92:43:73:29:96:39:e2:
         09:79:36:5d:a6:50:35:ec:b6:be:d3:d0:73:b4:f3:38:ae:c5:
         b0:9d:fc:4a:c4:27:9c:b3:22:8e:27:41:51:50:f9:57:3f:6d:
         0a:62:90:44:08:0e:5e:f7:3a:f1:78:90:d7:a5:2e:68:84:a1:
         2d:77:49:a6:2d:73:a2:8d:73:95:26:23:bc:2b:ac:f0:1f:bb:
         0b:93:11:72:fd:d5:18:9e:81:31:6c:0e:29:3e:6a:df:68:d2:
         e9:2e:32:24:54:f4:3d:23
-----BEGIN CERTIFICATE-----
MIIFAjCCAuqgAwIBAgICEjQwDQYJKoZIhvcNAQELBQAwgY0xCzAJBgNVBAYTAmpv
MQ4wDAYDVQQIDAVhbW1hbjEOMAwGA1UEBwwFYW1tYW4xEDAOBgNVBAoMB2FidW9k
ZWgxEDAOBgNVBAsMB2FidW9kZWgxDzANBgNVBAMMBmhpc2hhbTEpMCcGCSqGSIb3
DQEJARYaSC5JYnJhaGVlbUBhYnVvZGVoYnJvcy5jb20wHhcNMjIwNTA5MTAxMjA5
WhcNMjMwNTA5MTAxMjA5WjB9MQswCQYDVQQGEwJqbzEOMAwGA1UECAwFYW1tYW4x
EDAOBgNVBAoMB2FidW9kZWgxEDAOBgNVBAsMB2FidW9kZWgxDzANBgNVBAMMBmhp
c2hhbTEpMCcGCSqGSIb3DQEJARYaSC5JYnJhaGVlbUBhYnVvZGVoYnJvcy5jb20w
ggEiMA0GCSqGSIb3DQEBAQUAA4IBDwAwggEKAoIBAQCymLc+U3MCT4duQ8qdhuDP
6A+YwW3D2jImbCwI7+wW58HWm5XHiABOH0cXVDoQ44F6yqkYNwA+Ov/LfWHwWGo9
4IqIdYFjig3yqj/zEwRqsb1xP9fMLa27mOkbChKVsGUUwImd8QEm7fQO7J4CsRQB
/ymF3X3P/VVyhmpzzHt6gBHPPfWx0Oulh5suXdFv0UgMFKAa4ViUGm4bW1r/bEKa
bZpzJ3SK4njT4E34gD1Yq3BDYoeQHpDPYuswsW+inpadz4t4atSViPSls7i5AwZk
yJh7A9DIuoVG+WLqu6JcCsV1PG0YqI7P7pJxG/VzhZK139EkYGOEl6xpOLMTVXtt
AgMBAAGjezB5MAkGA1UdEwQCMAAwLAYJYIZIAYb4QgENBB8WHU9wZW5TU0wgR2Vu
ZXJhdGVkIENlcnRpZmljYXRlMB0GA1UdDgQWBBTrscLN86Cy/19PYqUNMza3xl2h
1zAfBgNVHSMEGDAWgBSR502ZOzkl9e+Ni5zRiZXTxhykVzANBgkqhkiG9w0BAQsF
AAOCAgEAr960xHsq4agb5Qexg/EzPXp/5YaQ8rFrUcGH0k10EYIsCxKHhmJCAp4L
wxUFr1BW43hbKJjbFGCjfh1H2RqcCiFakSWzyD/xjNrKmPoUduqmdPNVVV5q89ew
GFLbMI5LreK0X7S+tpPAp57IWIaUAZGLT75ImRmkDMS0GgJ4e6cgpyDPKnSFzUx9
ppLHn/pZlcG8WgEE9FuKYEeTe6ZdicRiwPR9yNgOmjKQroLAu7F+76qx4GoJKjLl
6rc01zY4vZdpCIffJ2WXLGMntmghU+n7xZtfPIe0nI4o7d+eJZJQdUOp99HQ59DH
+ogZqNCGYbAJ8qvIjPaxDGUghUwCdI+Y+nduVKGgvl4KZf30Ek0944rmCOX4bd/i
DmkVXtK994TLeKO6Yq5azjcgVEuaKrcVW55FHSx72z+tYpsczpsZVZYGv7wkL1bL
sbLu7bNrKjjdEHphHLPtJKgvXXXBteRqHJ2HPW43Ym1s4XWMmVpwOBbn8irfjBt2
Z0Hz+qU5dU40MiGFED9yOGCwjWLUWRtlPzjTuc+SQ3MpljniCXk2XaZQNey2vtPQ
c7TzOK7FsJ38SsQnnLMijidBUVD5Vz9tCmKQRAgOXvc68XiQ16UuaIShLXdJpi1z
oo1zlSYjvCus8B+7C5MRcv3VGJ6BMWwOKT5q32jS6S4yJFT0PSM=
-----END CERTIFICATE-----
